target datalayout = "e-m:e-p270:32:32-p271:32:32-p272:64:64-i64:64-i128:128-f80:128-n8:16:32:64-S128"
target triple = "x86_64-pc-linux-gnu"

%"class.icu_77::PtnSkeleton" = type <{ ptr, [16 x i32], %"class.icu_77::SkeletonFields", %"class.icu_77::SkeletonFields", i8, [7 x i8] }>
%"class.icu_77::SkeletonFields" = type { [16 x i8], [16 x i8] }

; Function Attrs: inlinehint mustprogress nounwind uwtable
define linkonce_odr noundef zeroext i1 @_ZNK6icu_7714SkeletonFieldseqERKS0_(ptr noundef nonnull align 1 dereferenceable(32) %0, ptr noundef nonnull align 1 dereferenceable(32) %1) #2 comdat align 2 {
  %3 = alloca ptr, align 8
  %4 = alloca ptr, align 8
  store ptr %0, ptr %3, align 8, !tbaa !208
  store ptr %1, ptr %4, align 8, !tbaa !208
  %5 = load ptr, ptr %3, align 8
  %6 = getelementptr inbounds nuw %"class.icu_77::SkeletonFields", ptr %5, i32 0, i32 0
  %7 = getelementptr inbounds [16 x i8], ptr %6, i64 0, i64 0
  %8 = load ptr, ptr %4, align 8, !tbaa !208
  %9 = getelementptr inbounds nuw %"class.icu_77::SkeletonFields", ptr %8, i32 0, i32 0
  %10 = getelementptr inbounds [16 x i8], ptr %9, i64 0, i64 0
  %11 = call i32 @memcmp(ptr noundef %7, ptr noundef %10, i64 noundef 16) #18
  %12 = icmp eq i32 %11, 0
  br i1 %12, label %13, label %21

13:                                               ; preds = %2
  %14 = getelementptr inbounds nuw %"class.icu_77::SkeletonFields", ptr %5, i32 0, i32 1
  %15 = getelementptr inbounds [16 x i8], ptr %14, i64 0, i64 0
  %16 = load ptr, ptr %4, align 8, !tbaa !208
  %17 = getelementptr inbounds nuw %"class.icu_77::SkeletonFields", ptr %16, i32 0, i32 1
  %18 = getelementptr inbounds [16 x i8], ptr %17, i64 0, i64 0
  %19 = call i32 @memcmp(ptr noundef %15, ptr noundef %18, i64 noundef 16) #18
  %20 = icmp eq i32 %19, 0
  br label %21

21:                                               ; preds = %13, %2
  %22 = phi i1 [ false, %2 ], [ %20, %13 ]
  ret i1 %22
}

; Function Attrs: mustprogress uwtable
define noundef signext i8 @_ZNK6icu_7711PtnSkeleton6equalsERKS0_(ptr noundef nonnull align 8 dereferenceable(137) %0, ptr noundef nonnull align 8 dereferenceable(137) %1) #1 align 2 {
  %3 = alloca ptr, align 8
  %4 = alloca ptr, align 8
  store ptr %0, ptr %3, align 8, !tbaa !72
  store ptr %1, ptr %4, align 8, !tbaa !72
  %5 = load ptr, ptr %3, align 8
  %6 = getelementptr inbounds nuw %"class.icu_77::PtnSkeleton", ptr %5, i32 0, i32 2
  %7 = load ptr, ptr %4, align 8, !tbaa !72
  %8 = getelementptr inbounds nuw %"class.icu_77::PtnSkeleton", ptr %7, i32 0, i32 2
  %9 = call noundef zeroext i1 @_ZNK6icu_7714SkeletonFieldseqERKS0_(ptr noundef nonnull align 1 dereferenceable(32) %6, ptr noundef nonnull align 1 dereferenceable(32) %8)
  br i1 %9, label %10, label %23

10:                                               ; preds = %2
  %11 = getelementptr inbounds nuw %"class.icu_77::PtnSkeleton", ptr %5, i32 0, i32 3
  %12 = load ptr, ptr %4, align 8, !tbaa !72
  %13 = getelementptr inbounds nuw %"class.icu_77::PtnSkeleton", ptr %12, i32 0, i32 3
  %14 = call noundef zeroext i1 @_ZNK6icu_7714SkeletonFieldseqERKS0_(ptr noundef nonnull align 1 dereferenceable(32) %11, ptr noundef nonnull align 1 dereferenceable(32) %13)
  br i1 %14, label %15, label %23

15:                                               ; preds = %10
  %16 = getelementptr inbounds nuw %"class.icu_77::PtnSkeleton", ptr %5, i32 0, i32 1
  %17 = getelementptr inbounds [16 x i32], ptr %16, i64 0, i64 0
  %18 = load ptr, ptr %4, align 8, !tbaa !72
  %19 = getelementptr inbounds nuw %"class.icu_77::PtnSkeleton", ptr %18, i32 0, i32 1
  %20 = getelementptr inbounds [16 x i32], ptr %19, i64 0, i64 0
  %21 = call i32 @memcmp(ptr noundef %17, ptr noundef %20, i64 noundef 64) #18
  %22 = icmp eq i32 %21, 0
  br label %23

23:                                               ; preds = %15, %10, %2
  %24 = phi i1 [ false, %10 ], [ false, %2 ], [ %22, %15 ]
  %25 = zext i1 %24 to i8
  ret i8 %25
}