; Function Attrs: mustprogress nofree nounwind willreturn memory(argmem: read) uwtable
define noundef signext range(i8 0, 2) i8 @_ZNK6icu_7711PtnSkeleton6equalsERKS0_(ptr noundef nonnull readonly align 8 captures(none) dereferenceable(137) %0, ptr noundef nonnull readonly align 8 captures(none) dereferenceable(137) %1) local_unnamed_addr #26 align 2 {
  %3 = getelementptr inbounds nuw i8, ptr %0, i64 72
  %4 = getelementptr inbounds nuw i8, ptr %1, i64 72
  %bcmp.i = tail call i32 @bcmp(ptr noundef nonnull align 1 dereferenceable(32) %3, ptr noundef nonnull align 1 dereferenceable(32) %4, i64 16)
  %5 = icmp eq i32 %bcmp.i, 0
  br i1 %5, label %_ZNK6icu_7714SkeletonFieldseqERKS0_.exit, label %_ZNK6icu_7714SkeletonFieldseqERKS0_.exit.thread

_ZNK6icu_7714SkeletonFieldseqERKS0_.exit:         ; preds = %2
  %6 = getelementptr inbounds nuw i8, ptr %0, i64 88
  %7 = getelementptr inbounds nuw i8, ptr %1, i64 88
  %bcmp3.i = tail call i32 @bcmp(ptr noundef nonnull dereferenceable(16) %6, ptr noundef nonnull dereferenceable(16) %7, i64 16)
  %8 = icmp eq i32 %bcmp3.i, 0
  br i1 %8, label %9, label %_ZNK6icu_7714SkeletonFieldseqERKS0_.exit.thread

9:                                                ; preds = %_ZNK6icu_7714SkeletonFieldseqERKS0_.exit
  %10 = getelementptr inbounds nuw i8, ptr %0, i64 104
  %11 = getelementptr inbounds nuw i8, ptr %1, i64 104
  %bcmp.i4 = tail call i32 @bcmp(ptr noundef nonnull align 1 dereferenceable(32) %10, ptr noundef nonnull align 1 dereferenceable(32) %11, i64 16)
  %12 = icmp eq i32 %bcmp.i4, 0
  br i1 %12, label %_ZNK6icu_7714SkeletonFieldseqERKS0_.exit6, label %_ZNK6icu_7714SkeletonFieldseqERKS0_.exit.thread

_ZNK6icu_7714SkeletonFieldseqERKS0_.exit6:        ; preds = %9
  %13 = getelementptr inbounds nuw i8, ptr %0, i64 120
  %14 = getelementptr inbounds nuw i8, ptr %1, i64 120
  %bcmp3.i5 = tail call i32 @bcmp(ptr noundef nonnull dereferenceable(16) %13, ptr noundef nonnull dereferenceable(16) %14, i64 16)
  %15 = icmp eq i32 %bcmp3.i5, 0
  br i1 %15, label %16, label %_ZNK6icu_7714SkeletonFieldseqERKS0_.exit.thread

16:                                               ; preds = %_ZNK6icu_7714SkeletonFieldseqERKS0_.exit6
  %17 = getelementptr inbounds nuw i8, ptr %0, i64 8
  %18 = getelementptr inbounds nuw i8, ptr %1, i64 8
  %bcmp = tail call i32 @bcmp(ptr noundef nonnull dereferenceable(64) %17, ptr noundef nonnull dereferenceable(64) %18, i64 64)
  %19 = icmp eq i32 %bcmp, 0
  %20 = zext i1 %19 to i8
  br label %_ZNK6icu_7714SkeletonFieldseqERKS0_.exit.thread

_ZNK6icu_7714SkeletonFieldseqERKS0_.exit.thread:  ; preds = %9, %2, %16, %_ZNK6icu_7714SkeletonFieldseqERKS0_.exit6, %_ZNK6icu_7714SkeletonFieldseqERKS0_.exit
  %21 = phi i8 [ 0, %_ZNK6icu_7714SkeletonFieldseqERKS0_.exit6 ], [ 0, %_ZNK6icu_7714SkeletonFieldseqERKS0_.exit ], [ %20, %16 ], [ 0, %2 ], [ 0, %9 ]
  ret i8 %21
}